; Function Attrs: mustprogress nounwind uwtable
define hidden noundef ptr @_ZN24ShenandoahStackWatermark20closure_from_contextEPv(ptr noundef nonnull readonly align 8 dereferenceable(320) %0, ptr noundef readnone %1) local_unnamed_addr #0 align 2 {
  %.not = icmp eq ptr %1, null
  br i1 %.not, label %3, label %20

3:                                                ; preds = %2
  %4 = getelementptr inbounds i8, ptr %0, i64 176
  %5 = load ptr, ptr %4, align 8
  %6 = getelementptr inbounds i8, ptr %5, i64 769
  %7 = load volatile i8, ptr %6, align 1
  tail call void asm sideeffect "", "~{memory},~{dirflag},~{fpsr},~{flags}"() #10, !srcloc !6
  %8 = and i8 %7, 2
  %.not5 = icmp eq i8 %8, 0
  br i1 %.not5, label %11, label %9

9:                                                ; preds = %3
  %10 = getelementptr inbounds i8, ptr %0, i64 248
  br label %20

11:                                               ; preds = %3
  %12 = load ptr, ptr %4, align 8
  %13 = getelementptr inbounds i8, ptr %12, i64 769
  %14 = load volatile i8, ptr %13, align 1
  tail call void asm sideeffect "", "~{memory},~{dirflag},~{fpsr},~{flags}"() #10, !srcloc !6
  %15 = and i8 %14, 16
  %.not6 = icmp eq i8 %15, 0
  br i1 %.not6, label %18, label %16

16:                                               ; preds = %11
  %17 = getelementptr inbounds i8, ptr %0, i64 264
  br label %20

18:                                               ; preds = %11
  %19 = load ptr, ptr @g_assert_poison, align 8
  store i8 88, ptr %19, align 1
  tail call void @_Z28report_should_not_reach_herePKci(ptr noundef nonnull @.str, i32 noundef 82) #11
  unreachable

20:                                               ; preds = %2, %16, %9
  %.0 = phi ptr [ %10, %9 ], [ %17, %16 ], [ %1, %2 ]
  ret ptr %.0
}